target datalayout = "e-m:e-p270:32:32-p271:32:32-p272:64:64-i64:64-i128:128-f80:128-n8:16:32:64-S128"
target triple = "x86_64-pc-linux-gnu"

%"class.boost::filesystem::path" = type { %"class.std::__cxx11::basic_string" }
%"class.std::__cxx11::basic_string" = type { %"struct.std::__cxx11::basic_string<char>::_Alloc_hider", i64, %union.anon }
%"struct.std::__cxx11::basic_string<char>::_Alloc_hider" = type { ptr }
%union.anon = type { i64, [8 x i8] }
%"class.boost::system::error_code" = type { %union.anon.1, i64 }
%union.anon.1 = type { %"struct.boost::system::error_code::data" }
%"struct.boost::system::error_code::data" = type { i32, ptr }
%"struct.boost::filesystem::space_info" = type { i64, i64, i64 }
%struct.statvfs = type { i64, i64, i64, i64, i64, i64, i64, i64, i64, i64, i64, [6 x i32] }

@.str.23 = private unnamed_addr constant [25 x i8] c"boost::filesystem::space\00", align 1

; Function Attrs: noinline noreturn nounwind uwtable
define linkonce_odr hidden void @__clang_call_terminate(ptr noundef %0) #3 comdat {
  %2 = call ptr @__cxa_begin_catch(ptr %0) #14
  call void @_ZSt9terminatev() #20
  unreachable
}

; Function Attrs: mustprogress nounwind uwtable
define available_externally noundef ptr @_ZNKSt7__cxx1112basic_stringIcSt11char_traitsIcESaIcEE7_M_dataEv(ptr noundef nonnull align 8 dereferenceable(32) %0) #2 align 2 {
  %2 = alloca ptr, align 8
  store ptr %0, ptr %2, align 8, !tbaa !3
  %3 = load ptr, ptr %2, align 8
  %4 = getelementptr inbounds nuw %"class.std::__cxx11::basic_string", ptr %3, i32 0, i32 0
  %5 = getelementptr inbounds nuw %"struct.std::__cxx11::basic_string<char>::_Alloc_hider", ptr %4, i32 0, i32 0
  %6 = load ptr, ptr %5, align 8, !tbaa !90
  ret ptr %6
}

; Function Attrs: mustprogress nounwind uwtable
define available_externally noundef ptr @_ZNKSt7__cxx1112basic_stringIcSt11char_traitsIcESaIcEE5c_strEv(ptr noundef nonnull align 8 dereferenceable(32) %0) #2 align 2 personality ptr @__gxx_personality_v0 {
  %2 = alloca ptr, align 8
  store ptr %0, ptr %2, align 8, !tbaa !3
  %3 = load ptr, ptr %2, align 8
  %4 = invoke noundef ptr @_ZNKSt7__cxx1112basic_stringIcSt11char_traitsIcESaIcEE7_M_dataEv(ptr noundef nonnull align 8 dereferenceable(32) %3)
          to label %5 unwind label %6

5:                                                ; preds = %1
  ret ptr %4

6:                                                ; preds = %1
  %7 = landingpad { ptr, i32 }
          catch ptr null
  %8 = extractvalue { ptr, i32 } %7, 0
  call void @__clang_call_terminate(ptr %8) #20
  unreachable
}

; Function Attrs: mustprogress nounwind uwtable
define linkonce_odr hidden void @_ZN5boost6system10error_codeC2Ev(ptr noundef nonnull align 8 dereferenceable(24) %0) unnamed_addr #2 comdat align 2 {
  %2 = alloca ptr, align 8
  store ptr %0, ptr %2, align 8, !tbaa !3
  %3 = load ptr, ptr %2, align 8
  %4 = getelementptr inbounds nuw %"class.boost::system::error_code", ptr %3, i32 0, i32 0
  call void @llvm.memset.p0.i64(ptr align 8 %4, i8 0, i64 16, i1 false)
  %5 = getelementptr inbounds nuw %"class.boost::system::error_code", ptr %3, i32 0, i32 1
  store i64 0, ptr %5, align 8, !tbaa !32
  ret void
}

; Function Attrs: inlinehint mustprogress uwtable
define linkonce_odr hidden noundef zeroext i1 @_ZN5boost10filesystem5errorEiRKNS0_4pathEPNS_6system10error_codeEPKc(i32 noundef %0, ptr noundef nonnull align 8 dereferenceable(32) %1, ptr noundef %2, ptr noundef %3) #0 comdat {
  %5 = alloca i1, align 1
  %6 = alloca i32, align 4
  %7 = alloca ptr, align 8
  %8 = alloca ptr, align 8
  %9 = alloca ptr, align 8
  store i32 %0, ptr %6, align 4, !tbaa !7
  store ptr %1, ptr %7, align 8, !tbaa !3
  store ptr %2, ptr %8, align 8, !tbaa !3
  store ptr %3, ptr %9, align 8, !tbaa !3
  %10 = load i32, ptr %6, align 4, !tbaa !7
  %11 = icmp ne i32 %10, 0
  %12 = xor i1 %11, true
  %13 = zext i1 %12 to i64
  %14 = call i64 @llvm.expect.i64(i64 %13, i64 1)
  %15 = icmp ne i64 %14, 0
  br i1 %15, label %16, label %22

16:                                               ; preds = %4
  %17 = load ptr, ptr %8, align 8, !tbaa !3
  %18 = icmp ne ptr %17, null
  br i1 %18, label %19, label %21

19:                                               ; preds = %16
  %20 = load ptr, ptr %8, align 8, !tbaa !3
  call void @_ZN5boost6system10error_code5clearEv(ptr noundef nonnull align 8 dereferenceable(24) %20) #14
  br label %21

21:                                               ; preds = %19, %16
  store i1 false, ptr %5, align 1
  br label %27

22:                                               ; preds = %4
  %23 = load i32, ptr %6, align 4, !tbaa !7
  %24 = load ptr, ptr %7, align 8, !tbaa !3
  %25 = load ptr, ptr %8, align 8, !tbaa !3
  %26 = load ptr, ptr %9, align 8, !tbaa !3
  call void @_ZN5boost10filesystem10emit_errorEiRKNS0_4pathEPNS_6system10error_codeEPKc(i32 noundef %23, ptr noundef nonnull align 8 dereferenceable(32) %24, ptr noundef %25, ptr noundef %26)
  store i1 true, ptr %5, align 1
  br label %27

27:                                               ; preds = %22, %21
  %28 = load i1, ptr %5, align 1
  ret i1 %28
}

; Function Attrs: mustprogress nounwind uwtable
define linkonce_odr hidden noundef ptr @_ZNK5boost10filesystem4path5c_strEv(ptr noundef nonnull align 8 dereferenceable(32) %0) #2 comdat align 2 {
  %2 = alloca ptr, align 8
  store ptr %0, ptr %2, align 8, !tbaa !3
  %3 = load ptr, ptr %2, align 8
  %4 = getelementptr inbounds nuw %"class.boost::filesystem::path", ptr %3, i32 0, i32 0
  %5 = call noundef ptr @_ZNKSt7__cxx1112basic_stringIcSt11char_traitsIcESaIcEE5c_strEv(ptr noundef nonnull align 8 dereferenceable(32) %4) #14
  ret ptr %5
}

; Function Attrs: mustprogress nounwind uwtable
define linkonce_odr hidden void @_ZN5boost6system10error_code5clearEv(ptr noundef nonnull align 8 dereferenceable(24) %0) #2 comdat align 2 {
  %2 = alloca ptr, align 8
  %3 = alloca %"class.boost::system::error_code", align 8
  store ptr %0, ptr %2, align 8, !tbaa !3
  %4 = load ptr, ptr %2, align 8
  call void @llvm.lifetime.start.p0(i64 24, ptr %3) #14
  call void @_ZN5boost6system10error_codeC2Ev(ptr noundef nonnull align 8 dereferenceable(24) %3) #14
  call void @llvm.memcpy.p0.p0.i64(ptr align 8 %4, ptr align 8 %3, i64 24, i1 false), !tbaa.struct !21
  call void @llvm.lifetime.end.p0(i64 24, ptr %3) #14
  ret void
}

; Function Attrs: mustprogress uwtable
define void @_ZN5boost10filesystem6detail5spaceERKNS0_4pathEPNS_6system10error_codeE(ptr dead_on_unwind noalias writable sret(%"struct.boost::filesystem::space_info") align 8 %0, ptr noundef nonnull align 8 dereferenceable(32) %1, ptr noundef %2) #5 {
  %4 = alloca ptr, align 8
  %5 = alloca ptr, align 8
  %6 = alloca %struct.statvfs, align 8
  store ptr %1, ptr %4, align 8, !tbaa !3
  store ptr %2, ptr %5, align 8, !tbaa !3
  %7 = getelementptr inbounds nuw %"struct.boost::filesystem::space_info", ptr %0, i32 0, i32 0
  store i64 -1, ptr %7, align 8, !tbaa !79
  %8 = getelementptr inbounds nuw %"struct.boost::filesystem::space_info", ptr %0, i32 0, i32 1
  store i64 -1, ptr %8, align 8, !tbaa !81
  %9 = getelementptr inbounds nuw %"struct.boost::filesystem::space_info", ptr %0, i32 0, i32 2
  store i64 -1, ptr %9, align 8, !tbaa !82
  %10 = load ptr, ptr %5, align 8, !tbaa !3
  %11 = icmp ne ptr %10, null
  br i1 %11, label %12, label %14

12:                                               ; preds = %3
  %13 = load ptr, ptr %5, align 8, !tbaa !3
  call void @_ZN5boost6system10error_code5clearEv(ptr noundef nonnull align 8 dereferenceable(24) %13) #14
  br label %14

14:                                               ; preds = %12, %3
  call void @llvm.lifetime.start.p0(i64 112, ptr %6) #14
  %15 = load ptr, ptr %4, align 8, !tbaa !3
  %16 = call noundef ptr @_ZNK5boost10filesystem4path5c_strEv(ptr noundef nonnull align 8 dereferenceable(32) %15) #14
  %17 = call i32 @statvfs64(ptr noundef %16, ptr noundef %6) #14
  %18 = icmp ne i32 %17, 0
  br i1 %18, label %19, label %22

19:                                               ; preds = %14
  %20 = call ptr @__errno_location() #22
  %21 = load i32, ptr %20, align 4, !tbaa !7
  br label %23

22:                                               ; preds = %14
  br label %23

23:                                               ; preds = %22, %19
  %24 = phi i32 [ %21, %19 ], [ 0, %22 ]
  %25 = load ptr, ptr %4, align 8, !tbaa !3
  %26 = load ptr, ptr %5, align 8, !tbaa !3
  %27 = call noundef zeroext i1 @_ZN5boost10filesystem5errorEiRKNS0_4pathEPNS_6system10error_codeEPKc(i32 noundef %24, ptr noundef nonnull align 8 dereferenceable(32) %25, ptr noundef %26, ptr noundef @.str.23)
  br i1 %27, label %47, label %28

28:                                               ; preds = %23
  %29 = getelementptr inbounds nuw %struct.statvfs, ptr %6, i32 0, i32 2
  %30 = load i64, ptr %29, align 8, !tbaa !83
  %31 = getelementptr inbounds nuw %struct.statvfs, ptr %6, i32 0, i32 1
  %32 = load i64, ptr %31, align 8, !tbaa !85
  %33 = mul i64 %30, %32
  %34 = getelementptr inbounds nuw %"struct.boost::filesystem::space_info", ptr %0, i32 0, i32 0
  store i64 %33, ptr %34, align 8, !tbaa !79
  %35 = getelementptr inbounds nuw %struct.statvfs, ptr %6, i32 0, i32 3
  %36 = load i64, ptr %35, align 8, !tbaa !86
  %37 = getelementptr inbounds nuw %struct.statvfs, ptr %6, i32 0, i32 1
  %38 = load i64, ptr %37, align 8, !tbaa !85
  %39 = mul i64 %36, %38
  %40 = getelementptr inbounds nuw %"struct.boost::filesystem::space_info", ptr %0, i32 0, i32 1
  store i64 %39, ptr %40, align 8, !tbaa !81
  %41 = getelementptr inbounds nuw %struct.statvfs, ptr %6, i32 0, i32 4
  %42 = load i64, ptr %41, align 8, !tbaa !87
  %43 = getelementptr inbounds nuw %struct.statvfs, ptr %6, i32 0, i32 1
  %44 = load i64, ptr %43, align 8, !tbaa !85
  %45 = mul i64 %42, %44
  %46 = getelementptr inbounds nuw %"struct.boost::filesystem::space_info", ptr %0, i32 0, i32 2
  store i64 %45, ptr %46, align 8, !tbaa !82
  br label %47

47:                                               ; preds = %28, %23
  call void @llvm.lifetime.end.p0(i64 112, ptr %6) #14
  ret void
}