; Function Attrs: mustprogress uwtable
define void @_ZN5boost10filesystem6detail5spaceERKNS0_4pathEPNS_6system10error_codeE(ptr dead_on_unwind noalias nocapture writable writeonly sret(%"struct.boost::filesystem::space_info") align 8 %0, ptr noundef nonnull align 8 dereferenceable(32) %1, ptr noundef %2) local_unnamed_addr #5 personality ptr @__gxx_personality_v0 {
  %4 = alloca %struct.statvfs, align 8
  %5 = getelementptr inbounds nuw i8, ptr %0, i64 8
  %6 = getelementptr inbounds nuw i8, ptr %0, i64 16
  %.not = icmp eq ptr %2, null
  tail call void @llvm.memset.p0.i64(ptr noundef nonnull align 8 dereferenceable(24) %0, i8 -1, i64 24, i1 false)
  br i1 %.not, label %8, label %7

7:                                                ; preds = %3
  tail call void @llvm.memset.p0.i64(ptr noundef nonnull align 8 dereferenceable(24) %2, i8 0, i64 24, i1 false)
  br label %8

8:                                                ; preds = %7, %3
  call void @llvm.lifetime.start.p0(i64 112, ptr nonnull %4) #27
  %9 = load ptr, ptr %1, align 8, !tbaa !13
  %10 = call i32 @statvfs64(ptr noundef %9, ptr noundef nonnull %4) #27
  %.not5 = icmp eq i32 %10, 0
  br i1 %.not5, label %.thread, label %11

11:                                               ; preds = %8
  %12 = tail call ptr @__errno_location() #30
  %13 = load i32, ptr %12, align 4, !tbaa !19
  %.not.i.not = icmp eq i32 %13, 0
  br i1 %.not.i.not, label %.thread, label %_ZN5boost10filesystem5errorEiRKNS0_4pathEPNS_6system10error_codeEPKc.exit, !prof !157

.thread:                                          ; preds = %8, %11
  br i1 %.not, label %15, label %14

14:                                               ; preds = %.thread
  tail call void @llvm.memset.p0.i64(ptr noundef nonnull align 8 dereferenceable(24) %2, i8 0, i64 24, i1 false)
  br label %15

_ZN5boost10filesystem5errorEiRKNS0_4pathEPNS_6system10error_codeEPKc.exit: ; preds = %11
  tail call void @_ZN5boost10filesystem10emit_errorEiRKNS0_4pathEPNS_6system10error_codeEPKc(i32 noundef %13, ptr noundef nonnull align 8 dereferenceable(32) %1, ptr noundef %2, ptr noundef nonnull @.str.23)
  br label %27

15:                                               ; preds = %.thread, %14
  %16 = getelementptr inbounds nuw i8, ptr %4, i64 16
  %17 = load i64, ptr %16, align 8, !tbaa !177
  %18 = getelementptr inbounds nuw i8, ptr %4, i64 8
  %19 = load i64, ptr %18, align 8, !tbaa !179
  %20 = mul i64 %19, %17
  store i64 %20, ptr %0, align 8, !tbaa !180
  %21 = getelementptr inbounds nuw i8, ptr %4, i64 24
  %22 = load i64, ptr %21, align 8, !tbaa !182
  %23 = mul i64 %22, %19
  store i64 %23, ptr %5, align 8, !tbaa !183
  %24 = getelementptr inbounds nuw i8, ptr %4, i64 32
  %25 = load i64, ptr %24, align 8, !tbaa !184
  %26 = mul i64 %25, %19
  store i64 %26, ptr %6, align 8, !tbaa !185
  br label %27

27:                                               ; preds = %_ZN5boost10filesystem5errorEiRKNS0_4pathEPNS_6system10error_codeEPKc.exit, %15
  call void @llvm.lifetime.end.p0(i64 112, ptr nonnull %4) #27
  ret void
}